target datalayout = "e-m:e-p270:32:32-p271:32:32-p272:64:64-i64:64-i128:128-f80:128-n8:16:32:64-S128"
target triple = "x86_64-pc-linux-gnu"

%struct.H5F_t = type { ptr, ptr, ptr, ptr, i32, ptr, i8, i8, ptr, i32 }
%struct.H5F_shared_t = type { ptr, ptr, ptr, i8, i32, i32, %struct.H5F_mtab_t, ptr, i8, i8, i64, i32, i32, i64, i64, ptr, ptr, %struct.H5AC_cache_config_t, %struct.H5AC_cache_image_config_t, i8, i8, ptr, i64, i32, i8, i64, i64, double, i64, i64, i64, i32, i32, i32, i8, i32, ptr, ptr, ptr, ptr, i8, i8, i8, i64, i64, ptr, ptr, i32, i64, i8, i32, i8, i64, i8, [13 x i32], [13 x i64], [13 x ptr], i8, i64, i64, [7 x i32], [7 x i32], %struct.H5F_blk_aggr_t, %struct.H5F_blk_aggr_t, i64, i64, %struct.H5F_meta_accum_t, i32, i32, [30 x ptr], %struct.H5F_object_flush_t, i8, ptr }
%struct.H5F_mtab_t = type { i32, i32, ptr }
%struct.H5AC_cache_config_t = type { i32, i8, i8, i8, [1025 x i8], i8, i8, i64, double, i64, i64, i64, i32, double, double, i8, i64, i32, double, double, i32, double, double, i8, i64, i32, i8, double, i64, i32 }
%struct.H5AC_cache_image_config_t = type { i32, i8, i8, i32 }
%struct.H5F_blk_aggr_t = type { i64, i64, i64, i64, i64 }
%struct.H5F_meta_accum_t = type { ptr, i64, i64, i64, i64, i64, i8 }
%struct.H5F_object_flush_t = type { ptr, ptr }

@.str.2 = private unnamed_addr constant [100 x i8] c"generated/home/dtcxzyw/WorkSpace/Projects/compilers/llvm-opt-benchmark/bench/hdf5/hdf5/src/H5Fint.c\00", align 1
@H5E_FILE_g = external global i64, align 8
@H5E_CANTCLOSEFILE_g = external global i64, align 8
@__func__.H5F__close = private unnamed_addr constant [11 x i8] c"H5F__close\00", align 1
@H5E_SYM_g = external global i64, align 8
@H5E_MOUNT_g = external global i64, align 8
@.str.119 = private unnamed_addr constant [33 x i8] c"problem checking mount hierarchy\00", align 1
@.str.120 = private unnamed_addr constant [47 x i8] c"can't close file, there are objects still open\00", align 1
@.str.121 = private unnamed_addr constant [17 x i8] c"can't close file\00", align 1

; Function Attrs: nounwind uwtable
define i32 @H5F__close(ptr noundef %0) #0 {
  %2 = alloca ptr, align 8
  %3 = alloca i32, align 4
  %4 = alloca i8, align 1
  %5 = alloca i32, align 4
  %6 = alloca i32, align 4
  store ptr %0, ptr %2, align 8
  store i32 0, ptr %3, align 4
  store i8 0, ptr %4, align 1
  %7 = load ptr, ptr %2, align 8
  %8 = getelementptr inbounds %struct.H5F_t, ptr %7, i32 0, i32 2
  %9 = load ptr, ptr %8, align 8
  %10 = getelementptr inbounds %struct.H5F_shared_t, ptr %9, i32 0, i32 23
  %11 = load i32, ptr %10, align 8
  %12 = icmp eq i32 %11, 2
  br i1 %12, label %13, label %54

13:                                               ; preds = %1
  store i32 0, ptr %5, align 4
  store i32 0, ptr %6, align 4
  %14 = load ptr, ptr %2, align 8
  %15 = call i32 @H5F__mount_count_ids(ptr noundef %14, ptr noundef %5, ptr noundef %6)
  %16 = icmp slt i32 %15, 0
  br i1 %16, label %17, label %32

17:                                               ; preds = %13
  br label %18

18:                                               ; preds = %17
  br label %19

19:                                               ; preds = %18
  br label %20

20:                                               ; preds = %19
  %21 = load i64, ptr @H5E_SYM_g, align 8
  %22 = load i64, ptr @H5E_MOUNT_g, align 8
  %23 = call i32 (ptr, ptr, i32, i64, i64, ptr, ...) @H5E_printf_stack(ptr noundef @.str.2, ptr noundef @__func__.H5F__close, i32 noundef 2429, i64 noundef %21, i64 noundef %22, ptr noundef @.str.119)
  br label %24

24:                                               ; preds = %20
  store i8 1, ptr %4, align 1
  %25 = load i8, ptr %4, align 1
  %26 = trunc i8 %25 to i1
  %27 = zext i1 %26 to i8
  store i8 %27, ptr %4, align 1
  br label %28

28:                                               ; preds = %24
  br label %29

29:                                               ; preds = %28
  store i32 -1, ptr %3, align 4
  br label %76

30:                                               ; No predecessors!
  br label %31

31:                                               ; preds = %30
  br label %32

32:                                               ; preds = %31, %13
  %33 = load i32, ptr %5, align 4
  %34 = icmp eq i32 %33, 1
  br i1 %34, label %35, label %53

35:                                               ; preds = %32
  %36 = load i32, ptr %6, align 4
  %37 = icmp ugt i32 %36, 0
  br i1 %37, label %38, label %53

38:                                               ; preds = %35
  br label %39

39:                                               ; preds = %38
  br label %40

40:                                               ; preds = %39
  br label %41

41:                                               ; preds = %40
  %42 = load i64, ptr @H5E_FILE_g, align 8
  %43 = load i64, ptr @H5E_CANTCLOSEFILE_g, align 8
  %44 = call i32 (ptr, ptr, i32, i64, i64, ptr, ...) @H5E_printf_stack(ptr noundef @.str.2, ptr noundef @__func__.H5F__close, i32 noundef 2437, i64 noundef %42, i64 noundef %43, ptr noundef @.str.120)
  br label %45

45:                                               ; preds = %41
  store i8 1, ptr %4, align 1
  %46 = load i8, ptr %4, align 1
  %47 = trunc i8 %46 to i1
  %48 = zext i1 %47 to i8
  store i8 %48, ptr %4, align 1
  br label %49

49:                                               ; preds = %45
  br label %50

50:                                               ; preds = %49
  store i32 -1, ptr %3, align 4
  br label %76

51:                                               ; No predecessors!
  br label %52

52:                                               ; preds = %51
  br label %53

53:                                               ; preds = %52, %35, %32
  br label %54

54:                                               ; preds = %53, %1
  %55 = load ptr, ptr %2, align 8
  %56 = getelementptr inbounds %struct.H5F_t, ptr %55, i32 0, i32 6
  store i8 0, ptr %56, align 8
  %57 = load ptr, ptr %2, align 8
  %58 = call i32 @H5F_try_close(ptr noundef %57, ptr noundef null)
  %59 = icmp slt i32 %58, 0
  br i1 %59, label %60, label %75

60:                                               ; preds = %54
  br label %61

61:                                               ; preds = %60
  br label %62

62:                                               ; preds = %61
  br label %63

63:                                               ; preds = %62
  %64 = load i64, ptr @H5E_FILE_g, align 8
  %65 = load i64, ptr @H5E_CANTCLOSEFILE_g, align 8
  %66 = call i32 (ptr, ptr, i32, i64, i64, ptr, ...) @H5E_printf_stack(ptr noundef @.str.2, ptr noundef @__func__.H5F__close, i32 noundef 2445, i64 noundef %64, i64 noundef %65, ptr noundef @.str.121)
  br label %67

67:                                               ; preds = %63
  store i8 1, ptr %4, align 1
  %68 = load i8, ptr %4, align 1
  %69 = trunc i8 %68 to i1
  %70 = zext i1 %69 to i8
  store i8 %70, ptr %4, align 1
  br label %71

71:                                               ; preds = %67
  br label %72

72:                                               ; preds = %71
  store i32 -1, ptr %3, align 4
  br label %76

73:                                               ; No predecessors!
  br label %74

74:                                               ; preds = %73
  br label %75

75:                                               ; preds = %74, %54
  br label %76

76:                                               ; preds = %75, %72, %50, %29
  %77 = load i32, ptr %3, align 4
  ret i32 %77
}