; Function Attrs: nounwind uwtable
define range(i32 -1, 1) i32 @H5F__close(ptr noundef %0) local_unnamed_addr #0 {
  %2 = alloca i32, align 4
  %3 = alloca i32, align 4
  %4 = getelementptr inbounds i8, ptr %0, i64 16
  %5 = load ptr, ptr %4, align 8
  %6 = getelementptr inbounds i8, ptr %5, i64 1368
  %7 = load i32, ptr %6, align 8
  %8 = icmp eq i32 %7, 2
  br i1 %8, label %9, label %25

9:                                                ; preds = %1
  store i32 0, ptr %2, align 4
  store i32 0, ptr %3, align 4
  %10 = call i32 @H5F__mount_count_ids(ptr noundef nonnull %0, ptr noundef nonnull %2, ptr noundef nonnull %3) #22
  %11 = icmp slt i32 %10, 0
  br i1 %11, label %12, label %16

12:                                               ; preds = %9
  %13 = load i64, ptr @H5E_SYM_g, align 8
  %14 = load i64, ptr @H5E_MOUNT_g, align 8
  %15 = call i32 (ptr, ptr, i32, i64, i64, ptr, ...) @H5E_printf_stack(ptr noundef nonnull @.str.2, ptr noundef nonnull @__func__.H5F__close, i32 noundef 2429, i64 noundef %13, i64 noundef %14, ptr noundef nonnull @.str.119) #22
  br label %33

16:                                               ; preds = %9
  %17 = load i32, ptr %2, align 4
  %18 = icmp eq i32 %17, 1
  %19 = load i32, ptr %3, align 4
  %20 = icmp ne i32 %19, 0
  %or.cond = select i1 %18, i1 %20, i1 false
  br i1 %or.cond, label %21, label %25

21:                                               ; preds = %16
  %22 = load i64, ptr @H5E_FILE_g, align 8
  %23 = load i64, ptr @H5E_CANTCLOSEFILE_g, align 8
  %24 = call i32 (ptr, ptr, i32, i64, i64, ptr, ...) @H5E_printf_stack(ptr noundef nonnull @.str.2, ptr noundef nonnull @__func__.H5F__close, i32 noundef 2437, i64 noundef %22, i64 noundef %23, ptr noundef nonnull @.str.120) #22
  br label %33

25:                                               ; preds = %16, %1
  %26 = getelementptr inbounds i8, ptr %0, i64 48
  store i8 0, ptr %26, align 8
  %27 = call i32 @H5F_try_close(ptr noundef nonnull %0, ptr noundef null)
  %28 = icmp slt i32 %27, 0
  br i1 %28, label %29, label %33

29:                                               ; preds = %25
  %30 = load i64, ptr @H5E_FILE_g, align 8
  %31 = load i64, ptr @H5E_CANTCLOSEFILE_g, align 8
  %32 = call i32 (ptr, ptr, i32, i64, i64, ptr, ...) @H5E_printf_stack(ptr noundef nonnull @.str.2, ptr noundef nonnull @__func__.H5F__close, i32 noundef 2445, i64 noundef %30, i64 noundef %31, ptr noundef nonnull @.str.121) #22
  br label %33

33:                                               ; preds = %25, %29, %21, %12
  %.0 = phi i32 [ -1, %12 ], [ -1, %21 ], [ -1, %29 ], [ 0, %25 ]
  ret i32 %.0
}